; Function Attrs: mustprogress nofree norecurse nosync nounwind memory(argmem: readwrite) uwtable
define noundef nonnull align 8 dereferenceable(32) ptr @_ZN5arrow15BasicDecimal256pLERKS0_(ptr noundef nonnull returned align 8 captures(ret: address, provenance) dereferenceable(32) %0, ptr noundef nonnull readonly align 8 captures(none) dereferenceable(32) %1) local_unnamed_addr #8 align 2 {
  br label %4

3:                                                ; preds = %4
  ret ptr %0

4:                                                ; preds = %2, %4
  %.021 = phi i64 [ 0, %2 ], [ %.2, %4 ]
  %.01620 = phi i64 [ 0, %2 ], [ %14, %4 ]
  %5 = getelementptr inbounds nuw [4 x i64], ptr %1, i64 0, i64 %.01620
  %6 = load i64, ptr %5, align 8, !tbaa !7
  %7 = add i64 %6, %.021
  %8 = icmp ult i64 %7, %6
  %spec.select = zext i1 %8 to i64
  %9 = getelementptr inbounds nuw [4 x i64], ptr %0, i64 0, i64 %.01620
  %10 = load i64, ptr %9, align 8, !tbaa !7
  %11 = add i64 %7, %10
  %12 = icmp ult i64 %11, %10
  %13 = select i1 %8, i64 2, i64 1
  %.2 = select i1 %12, i64 %13, i64 %spec.select
  store i64 %11, ptr %9, align 8, !tbaa !7
  %14 = add nuw nsw i64 %.01620, 1
  %exitcond.not = icmp eq i64 %14, 4
  br i1 %exitcond.not, label %3, label %4, !llvm.loop !30
}